target datalayout = "e-m:e-p270:32:32-p271:32:32-p272:64:64-i64:64-i128:128-f80:128-n8:16:32:64-S128"
target triple = "x86_64-pc-linux-gnu"

%struct._zend_mm_heap = type { i32, ptr, i64, i64, [30 x ptr], i64, i64, i64, i32, ptr, ptr, ptr, i32, i32, i32, double, i32, i32, %struct.anon, ptr }
%struct.anon = type { ptr, ptr, ptr }
%struct._zend_mm_chunk = type { ptr, ptr, ptr, i32, i32, i32, [28 x i8], %struct._zend_mm_heap, [8 x i64], [512 x i32] }
%struct._zend_mm_free_slot = type { ptr }

@bin_elements = internal constant [30 x i32] [i32 512, i32 256, i32 170, i32 128, i32 102, i32 85, i32 73, i32 64, i32 51, i32 42, i32 36, i32 32, i32 25, i32 21, i32 18, i32 16, i32 64, i32 32, i32 9, i32 8, i32 32, i32 16, i32 9, i32 8, i32 16, i32 8, i32 16, i32 8, i32 8, i32 4], align 16
@bin_pages = internal constant [30 x i32] [i32 1, i32 1, i32 1, i32 1, i32 1, i32 1, i32 1, i32 1, i32 1, i32 1, i32 1, i32 1, i32 1, i32 1, i32 1, i32 1, i32 5, i32 3, i32 1, i32 1, i32 5, i32 3, i32 2, i32 2, i32 5, i32 3, i32 7, i32 4, i32 5, i32 3], align 16

; Function Attrs: nounwind uwtable
define internal ptr @zend_mm_alloc_large(ptr noundef %0, i64 noundef %1) #0 {
  %3 = alloca ptr, align 8
  %4 = alloca i64, align 8
  %5 = alloca i32, align 4
  %6 = alloca ptr, align 8
  %7 = alloca i64, align 8
  %8 = alloca i64, align 8
  %9 = alloca ptr, align 8
  %10 = alloca i64, align 8
  store ptr %0, ptr %9, align 8
  store i64 %1, ptr %10, align 8
  %11 = load ptr, ptr %9, align 8
  %12 = load i64, ptr %10, align 8
  store ptr %11, ptr %3, align 8
  store i64 %12, ptr %4, align 8
  %13 = load i64, ptr %4, align 8
  %14 = add i64 %13, 4095
  %15 = udiv i64 %14, 4096
  %16 = trunc i64 %15 to i32
  store i32 %16, ptr %5, align 4
  %17 = load ptr, ptr %3, align 8
  %18 = load i32, ptr %5, align 4
  %19 = call ptr @zend_mm_alloc_pages(ptr noundef %17, i32 noundef %18)
  store ptr %19, ptr %6, align 8
  %20 = load ptr, ptr %3, align 8
  %21 = getelementptr inbounds %struct._zend_mm_heap, ptr %20, i32 0, i32 2
  %22 = load i64, ptr %21, align 8
  %23 = load i32, ptr %5, align 4
  %24 = mul nsw i32 %23, 4096
  %25 = sext i32 %24 to i64
  %26 = add i64 %22, %25
  store i64 %26, ptr %7, align 8
  %27 = load ptr, ptr %3, align 8
  %28 = getelementptr inbounds %struct._zend_mm_heap, ptr %27, i32 0, i32 3
  %29 = load i64, ptr %28, align 8
  %30 = load i64, ptr %7, align 8
  %31 = icmp ugt i64 %29, %30
  br i1 %31, label %32, label %36

32:                                               ; preds = %2
  %33 = load ptr, ptr %3, align 8
  %34 = getelementptr inbounds %struct._zend_mm_heap, ptr %33, i32 0, i32 3
  %35 = load i64, ptr %34, align 8
  br label %38

36:                                               ; preds = %2
  %37 = load i64, ptr %7, align 8
  br label %38

38:                                               ; preds = %36, %32
  %39 = phi i64 [ %35, %32 ], [ %37, %36 ]
  store i64 %39, ptr %8, align 8
  %40 = load i64, ptr %7, align 8
  %41 = load ptr, ptr %3, align 8
  %42 = getelementptr inbounds %struct._zend_mm_heap, ptr %41, i32 0, i32 2
  store i64 %40, ptr %42, align 8
  %43 = load i64, ptr %8, align 8
  %44 = load ptr, ptr %3, align 8
  %45 = getelementptr inbounds %struct._zend_mm_heap, ptr %44, i32 0, i32 3
  store i64 %43, ptr %45, align 8
  %46 = load ptr, ptr %6, align 8
  ret ptr %46
}

; Function Attrs: nounwind uwtable
define internal ptr @zend_mm_alloc_small_slow(ptr noundef %0, i32 noundef %1) #0 {
  %3 = alloca ptr, align 8
  %4 = alloca ptr, align 8
  %5 = alloca i32, align 4
  %6 = alloca ptr, align 8
  %7 = alloca i32, align 4
  %8 = alloca ptr, align 8
  %9 = alloca ptr, align 8
  %10 = alloca ptr, align 8
  %11 = alloca i32, align 4
  store ptr %0, ptr %4, align 8
  store i32 %1, ptr %5, align 4
  %12 = load ptr, ptr %4, align 8
  %13 = load i32, ptr %5, align 4
  %14 = zext i32 %13 to i64
  %15 = getelementptr inbounds [30 x i32], ptr @bin_pages, i64 0, i64 %14
  %16 = load i32, ptr %15, align 4
  %17 = call ptr @zend_mm_alloc_pages(ptr noundef %12, i32 noundef %16)
  store ptr %17, ptr %8, align 8
  %18 = load ptr, ptr %8, align 8
  %19 = icmp eq ptr %18, null
  %20 = xor i1 %19, true
  %21 = xor i1 %20, true
  %22 = zext i1 %21 to i32
  %23 = sext i32 %22 to i64
  %24 = icmp ne i64 %23, 0
  br i1 %24, label %25, label %26

25:                                               ; preds = %2
  store ptr null, ptr %3, align 8
  br label %125

26:                                               ; preds = %2
  %27 = load ptr, ptr %8, align 8
  %28 = ptrtoint ptr %27 to i64
  %29 = and i64 %28, -2097152
  %30 = inttoptr i64 %29 to ptr
  store ptr %30, ptr %6, align 8
  %31 = load ptr, ptr %8, align 8
  %32 = ptrtoint ptr %31 to i64
  %33 = and i64 %32, 2097151
  %34 = udiv i64 %33, 4096
  %35 = trunc i64 %34 to i32
  store i32 %35, ptr %7, align 4
  %36 = load i32, ptr %5, align 4
  %37 = shl i32 %36, 0
  %38 = or i32 -2147483648, %37
  %39 = load ptr, ptr %6, align 8
  %40 = getelementptr inbounds %struct._zend_mm_chunk, ptr %39, i32 0, i32 9
  %41 = load i32, ptr %7, align 4
  %42 = sext i32 %41 to i64
  %43 = getelementptr inbounds [512 x i32], ptr %40, i64 0, i64 %42
  store i32 %38, ptr %43, align 4
  %44 = load i32, ptr %5, align 4
  %45 = zext i32 %44 to i64
  %46 = getelementptr inbounds [30 x i32], ptr @bin_pages, i64 0, i64 %45
  %47 = load i32, ptr %46, align 4
  %48 = icmp ugt i32 %47, 1
  br i1 %48, label %49, label %74

49:                                               ; preds = %26
  store i32 1, ptr %11, align 4
  br label %50

50:                                               ; preds = %66, %49
  %51 = load i32, ptr %5, align 4
  %52 = shl i32 %51, 0
  %53 = or i32 -1073741824, %52
  %54 = load i32, ptr %11, align 4
  %55 = shl i32 %54, 16
  %56 = or i32 %53, %55
  %57 = load ptr, ptr %6, align 8
  %58 = getelementptr inbounds %struct._zend_mm_chunk, ptr %57, i32 0, i32 9
  %59 = load i32, ptr %7, align 4
  %60 = load i32, ptr %11, align 4
  %61 = add i32 %59, %60
  %62 = zext i32 %61 to i64
  %63 = getelementptr inbounds [512 x i32], ptr %58, i64 0, i64 %62
  store i32 %56, ptr %63, align 4
  %64 = load i32, ptr %11, align 4
  %65 = add i32 %64, 1
  store i32 %65, ptr %11, align 4
  br label %66

66:                                               ; preds = %50
  %67 = load i32, ptr %11, align 4
  %68 = load i32, ptr %5, align 4
  %69 = zext i32 %68 to i64
  %70 = getelementptr inbounds [30 x i32], ptr @bin_pages, i64 0, i64 %69
  %71 = load i32, ptr %70, align 4
  %72 = icmp ult i32 %67, %71
  br i1 %72, label %50, label %73

73:                                               ; preds = %66
  br label %74

74:                                               ; preds = %73, %26
  %75 = load ptr, ptr %8, align 8
  %76 = load i32, ptr %5, align 4
  %77 = zext i32 %76 to i64
  %78 = getelementptr inbounds [30 x i32], ptr @bin_data_size, i64 0, i64 %77
  %79 = load i32, ptr %78, align 4
  %80 = load i32, ptr %5, align 4
  %81 = zext i32 %80 to i64
  %82 = getelementptr inbounds [30 x i32], ptr @bin_elements, i64 0, i64 %81
  %83 = load i32, ptr %82, align 4
  %84 = sub i32 %83, 1
  %85 = mul i32 %79, %84
  %86 = zext i32 %85 to i64
  %87 = getelementptr inbounds i8, ptr %75, i64 %86
  store ptr %87, ptr %10, align 8
  %88 = load ptr, ptr %8, align 8
  %89 = load i32, ptr %5, align 4
  %90 = zext i32 %89 to i64
  %91 = getelementptr inbounds [30 x i32], ptr @bin_data_size, i64 0, i64 %90
  %92 = load i32, ptr %91, align 4
  %93 = zext i32 %92 to i64
  %94 = getelementptr inbounds i8, ptr %88, i64 %93
  store ptr %94, ptr %9, align 8
  %95 = load ptr, ptr %4, align 8
  %96 = getelementptr inbounds %struct._zend_mm_heap, ptr %95, i32 0, i32 4
  %97 = load i32, ptr %5, align 4
  %98 = zext i32 %97 to i64
  %99 = getelementptr inbounds [30 x ptr], ptr %96, i64 0, i64 %98
  store ptr %94, ptr %99, align 8
  br label %100

100:                                              ; preds = %117, %74
  %101 = load ptr, ptr %9, align 8
  %102 = load i32, ptr %5, align 4
  %103 = zext i32 %102 to i64
  %104 = getelementptr inbounds [30 x i32], ptr @bin_data_size, i64 0, i64 %103
  %105 = load i32, ptr %104, align 4
  %106 = zext i32 %105 to i64
  %107 = getelementptr inbounds i8, ptr %101, i64 %106
  %108 = load ptr, ptr %9, align 8
  %109 = getelementptr inbounds %struct._zend_mm_free_slot, ptr %108, i32 0, i32 0
  store ptr %107, ptr %109, align 8
  %110 = load ptr, ptr %9, align 8
  %111 = load i32, ptr %5, align 4
  %112 = zext i32 %111 to i64
  %113 = getelementptr inbounds [30 x i32], ptr @bin_data_size, i64 0, i64 %112
  %114 = load i32, ptr %113, align 4
  %115 = zext i32 %114 to i64
  %116 = getelementptr inbounds i8, ptr %110, i64 %115
  store ptr %116, ptr %9, align 8
  br label %117

117:                                              ; preds = %100
  %118 = load ptr, ptr %9, align 8
  %119 = load ptr, ptr %10, align 8
  %120 = icmp ne ptr %118, %119
  br i1 %120, label %100, label %121

121:                                              ; preds = %117
  %122 = load ptr, ptr %9, align 8
  %123 = getelementptr inbounds %struct._zend_mm_free_slot, ptr %122, i32 0, i32 0
  store ptr null, ptr %123, align 8
  %124 = load ptr, ptr %8, align 8
  store ptr %124, ptr %3, align 8
  br label %125

125:                                              ; preds = %121, %25
  %126 = load ptr, ptr %3, align 8
  ret ptr %126
}

; Function Attrs: nounwind allocsize(1) uwtable
define noalias ptr @_zend_mm_alloc(ptr noundef %0, i64 noundef %1) #6 {
  %3 = alloca i32, align 4
  %4 = alloca i32, align 4
  %5 = alloca i64, align 8
  %6 = alloca i32, align 4
  %7 = alloca i32, align 4
  %8 = alloca ptr, align 8
  %9 = alloca ptr, align 8
  %10 = alloca i32, align 4
  %11 = alloca i64, align 8
  %12 = alloca i64, align 8
  %13 = alloca ptr, align 8
  %14 = alloca ptr, align 8
  %15 = alloca ptr, align 8
  %16 = alloca i64, align 8
  %17 = alloca ptr, align 8
  %18 = alloca ptr, align 8
  %19 = alloca i64, align 8
  store ptr %0, ptr %18, align 8
  store i64 %1, ptr %19, align 8
  %20 = load ptr, ptr %18, align 8
  %21 = load i64, ptr %19, align 8
  store ptr %20, ptr %15, align 8
  store i64 %21, ptr %16, align 8
  %22 = load i64, ptr %16, align 8
  %23 = icmp ule i64 %22, 3072
  br i1 %23, label %24, label %117

24:                                               ; preds = %2
  %25 = load ptr, ptr %15, align 8
  %26 = load i64, ptr %16, align 8
  store i64 %26, ptr %5, align 8
  %27 = load i64, ptr %5, align 8
  %28 = icmp ule i64 %27, 64
  br i1 %28, label %29, label %38

29:                                               ; preds = %24
  %30 = load i64, ptr %5, align 8
  %31 = load i64, ptr %5, align 8
  %32 = icmp ne i64 %31, 0
  %33 = zext i1 %32 to i32
  %34 = sext i32 %33 to i64
  %35 = sub i64 %30, %34
  %36 = lshr i64 %35, 3
  %37 = trunc i64 %36 to i32
  store i32 %37, ptr %4, align 4
  br label %58

38:                                               ; preds = %24
  %39 = load i64, ptr %5, align 8
  %40 = sub i64 %39, 1
  %41 = trunc i64 %40 to i32
  store i32 %41, ptr %6, align 4
  %42 = load i32, ptr %6, align 4
  store i32 %42, ptr %3, align 4
  %43 = load i32, ptr %3, align 4
  %44 = call i32 @llvm.ctlz.i32(i32 %43, i1 true)
  %45 = xor i32 %44, 31
  %46 = add nsw i32 %45, 1
  %47 = sub nsw i32 %46, 3
  store i32 %47, ptr %7, align 4
  %48 = load i32, ptr %6, align 4
  %49 = load i32, ptr %7, align 4
  %50 = lshr i32 %48, %49
  store i32 %50, ptr %6, align 4
  %51 = load i32, ptr %7, align 4
  %52 = sub i32 %51, 3
  store i32 %52, ptr %7, align 4
  %53 = load i32, ptr %7, align 4
  %54 = shl i32 %53, 2
  store i32 %54, ptr %7, align 4
  %55 = load i32, ptr %6, align 4
  %56 = load i32, ptr %7, align 4
  %57 = add i32 %55, %56
  store i32 %57, ptr %4, align 4
  br label %58

58:                                               ; preds = %38, %29
  %59 = load i32, ptr %4, align 4
  store ptr %25, ptr %9, align 8
  store i32 %59, ptr %10, align 4
  %60 = load ptr, ptr %9, align 8
  %61 = getelementptr inbounds %struct._zend_mm_heap, ptr %60, i32 0, i32 2
  %62 = load i64, ptr %61, align 8
  %63 = load i32, ptr %10, align 4
  %64 = sext i32 %63 to i64
  %65 = getelementptr inbounds [30 x i32], ptr @bin_data_size, i64 0, i64 %64
  %66 = load i32, ptr %65, align 4
  %67 = zext i32 %66 to i64
  %68 = add i64 %62, %67
  store i64 %68, ptr %11, align 8
  %69 = load ptr, ptr %9, align 8
  %70 = getelementptr inbounds %struct._zend_mm_heap, ptr %69, i32 0, i32 3
  %71 = load i64, ptr %70, align 8
  %72 = load i64, ptr %11, align 8
  %73 = icmp ugt i64 %71, %72
  br i1 %73, label %74, label %78

74:                                               ; preds = %58
  %75 = load ptr, ptr %9, align 8
  %76 = getelementptr inbounds %struct._zend_mm_heap, ptr %75, i32 0, i32 3
  %77 = load i64, ptr %76, align 8
  br label %80

78:                                               ; preds = %58
  %79 = load i64, ptr %11, align 8
  br label %80

80:                                               ; preds = %78, %74
  %81 = phi i64 [ %77, %74 ], [ %79, %78 ]
  store i64 %81, ptr %12, align 8
  %82 = load i64, ptr %11, align 8
  %83 = load ptr, ptr %9, align 8
  %84 = getelementptr inbounds %struct._zend_mm_heap, ptr %83, i32 0, i32 2
  store i64 %82, ptr %84, align 8
  %85 = load i64, ptr %12, align 8
  %86 = load ptr, ptr %9, align 8
  %87 = getelementptr inbounds %struct._zend_mm_heap, ptr %86, i32 0, i32 3
  store i64 %85, ptr %87, align 8
  %88 = load ptr, ptr %9, align 8
  %89 = getelementptr inbounds %struct._zend_mm_heap, ptr %88, i32 0, i32 4
  %90 = load i32, ptr %10, align 4
  %91 = sext i32 %90 to i64
  %92 = getelementptr inbounds [30 x ptr], ptr %89, i64 0, i64 %91
  %93 = load ptr, ptr %92, align 8
  %94 = icmp ne ptr %93, null
  br i1 %94, label %95, label %110

95:                                               ; preds = %80
  %96 = load ptr, ptr %9, align 8
  %97 = getelementptr inbounds %struct._zend_mm_heap, ptr %96, i32 0, i32 4
  %98 = load i32, ptr %10, align 4
  %99 = sext i32 %98 to i64
  %100 = getelementptr inbounds [30 x ptr], ptr %97, i64 0, i64 %99
  %101 = load ptr, ptr %100, align 8
  store ptr %101, ptr %13, align 8
  %102 = load ptr, ptr %13, align 8
  %103 = load ptr, ptr %102, align 8
  %104 = load ptr, ptr %9, align 8
  %105 = getelementptr inbounds %struct._zend_mm_heap, ptr %104, i32 0, i32 4
  %106 = load i32, ptr %10, align 4
  %107 = sext i32 %106 to i64
  %108 = getelementptr inbounds [30 x ptr], ptr %105, i64 0, i64 %107
  store ptr %103, ptr %108, align 8
  %109 = load ptr, ptr %13, align 8
  store ptr %109, ptr %8, align 8
  br label %114

110:                                              ; preds = %80
  %111 = load ptr, ptr %9, align 8
  %112 = load i32, ptr %10, align 4
  %113 = call ptr @zend_mm_alloc_small_slow(ptr noundef %111, i32 noundef %112)
  store ptr %113, ptr %8, align 8
  br label %114

114:                                              ; preds = %110, %95
  %115 = load ptr, ptr %8, align 8
  store ptr %115, ptr %17, align 8
  %116 = load ptr, ptr %17, align 8
  store ptr %116, ptr %14, align 8
  br label %129

117:                                              ; preds = %2
  %118 = load i64, ptr %16, align 8
  %119 = icmp ule i64 %118, 2093056
  br i1 %119, label %120, label %125

120:                                              ; preds = %117
  %121 = load ptr, ptr %15, align 8
  %122 = load i64, ptr %16, align 8
  %123 = call ptr @zend_mm_alloc_large(ptr noundef %121, i64 noundef %122)
  store ptr %123, ptr %17, align 8
  %124 = load ptr, ptr %17, align 8
  store ptr %124, ptr %14, align 8
  br label %129

125:                                              ; preds = %117
  %126 = load ptr, ptr %15, align 8
  %127 = load i64, ptr %16, align 8
  %128 = call ptr @zend_mm_alloc_huge(ptr noundef %126, i64 noundef %127)
  store ptr %128, ptr %14, align 8
  br label %129

129:                                              ; preds = %125, %120, %114
  %130 = load ptr, ptr %14, align 8
  ret ptr %130
}