; Function Attrs: nounwind allocsize(1) uwtable
define noalias ptr @_zend_mm_alloc(ptr noundef %0, i64 noundef %1) local_unnamed_addr #7 {
  %3 = icmp ult i64 %1, 3073
  br i1 %3, label %4, label %75

4:                                                ; preds = %2
  %5 = icmp ult i64 %1, 65
  br i1 %5, label %6, label %11

6:                                                ; preds = %4
  %7 = icmp ne i64 %1, 0
  %.neg = sext i1 %7 to i64
  %8 = add nsw i64 %.neg, %1
  %9 = lshr i64 %8, 3
  %10 = trunc i64 %9 to i32
  br label %19

11:                                               ; preds = %4
  %12 = trunc i64 %1 to i32
  %13 = add nsw i32 %12, -1
  %14 = tail call i32 @llvm.ctlz.i32(i32 %13, i1 true), !range !4
  %15 = sub nuw nsw i32 29, %14
  %16 = lshr i32 %13, %15
  %17 = shl nuw nsw i32 %14, 2
  %reass.sub54 = sub nsw i32 %16, %17
  %18 = add nsw i32 %reass.sub54, 104
  br label %19

19:                                               ; preds = %11, %6
  %.0 = phi i32 [ %10, %6 ], [ %18, %11 ]
  %20 = getelementptr inbounds i8, ptr %0, i64 16
  %21 = load i64, ptr %20, align 8
  %22 = sext i32 %.0 to i64
  %23 = getelementptr inbounds [30 x i32], ptr @bin_data_size, i64 0, i64 %22
  %24 = load i32, ptr %23, align 4
  %25 = zext i32 %24 to i64
  %26 = add i64 %21, %25
  %27 = getelementptr inbounds i8, ptr %0, i64 24
  %28 = load i64, ptr %27, align 8
  %. = tail call i64 @llvm.umax.i64(i64 %28, i64 %26)
  store i64 %26, ptr %20, align 8
  store i64 %., ptr %27, align 8
  %29 = getelementptr inbounds i8, ptr %0, i64 32
  %30 = getelementptr inbounds [30 x ptr], ptr %29, i64 0, i64 %22
  %31 = load ptr, ptr %30, align 8
  %.not = icmp eq ptr %31, null
  br i1 %.not, label %34, label %32

32:                                               ; preds = %19
  %33 = load ptr, ptr %31, align 8
  store ptr %33, ptr %30, align 8
  br label %zend_mm_alloc_small_slow.exit

34:                                               ; preds = %19
  %35 = zext i32 %.0 to i64
  %36 = getelementptr inbounds [30 x i32], ptr @bin_pages, i64 0, i64 %35
  %37 = load i32, ptr %36, align 4
  %38 = tail call fastcc ptr @zend_mm_alloc_pages(ptr noundef nonnull %0, i32 noundef %37)
  %39 = icmp eq ptr %38, null
  br i1 %39, label %zend_mm_alloc_small_slow.exit, label %40

40:                                               ; preds = %34
  %41 = ptrtoint ptr %38 to i64
  %42 = and i64 %41, -2097152
  %43 = inttoptr i64 %42 to ptr
  %44 = trunc i64 %41 to i32
  %45 = lshr i32 %44, 12
  %46 = and i32 %45, 511
  %47 = or i32 %.0, -2147483648
  %48 = getelementptr inbounds i8, ptr %43, i64 520
  %49 = zext nneg i32 %46 to i64
  %50 = getelementptr inbounds [512 x i32], ptr %48, i64 0, i64 %49
  store i32 %47, ptr %50, align 4
  %51 = lshr i64 1072889856, %35
  %52 = and i64 %51, 1
  %.not.i = icmp eq i64 %52, 0
  br i1 %.not.i, label %.loopexit.i, label %.preheader.i

.preheader.i:                                     ; preds = %40
  %umax.i = tail call i32 @llvm.umax.i32(i32 %37, i32 2)
  %wide.trip.count.i = zext i32 %umax.i to i64
  br label %53

53:                                               ; preds = %53, %.preheader.i
  %indvars.iv.i = phi i64 [ 1, %.preheader.i ], [ %indvars.iv.next.i, %53 ]
  %54 = trunc i64 %indvars.iv.i to i32
  %55 = shl i32 %54, 16
  %56 = or i32 %.0, %55
  %57 = or i32 %56, -1073741824
  %58 = add i32 %46, %54
  %59 = zext i32 %58 to i64
  %60 = getelementptr inbounds [512 x i32], ptr %48, i64 0, i64 %59
  store i32 %57, ptr %60, align 4
  %indvars.iv.next.i = add nuw nsw i64 %indvars.iv.i, 1
  %exitcond.not.i = icmp eq i64 %indvars.iv.next.i, %wide.trip.count.i
  br i1 %exitcond.not.i, label %.loopexit.i, label %53

.loopexit.i:                                      ; preds = %53, %40
  %61 = getelementptr inbounds [30 x i32], ptr @bin_data_size, i64 0, i64 %35
  %62 = load i32, ptr %61, align 4
  %63 = getelementptr inbounds [30 x i32], ptr @bin_elements, i64 0, i64 %35
  %64 = load i32, ptr %63, align 4
  %65 = add i32 %64, -1
  %66 = mul i32 %65, %62
  %67 = zext i32 %66 to i64
  %68 = getelementptr inbounds i8, ptr %38, i64 %67
  %69 = zext i32 %62 to i64
  %70 = getelementptr inbounds i8, ptr %38, i64 %69
  %71 = getelementptr inbounds [30 x ptr], ptr %29, i64 0, i64 %35
  store ptr %70, ptr %71, align 8
  br label %72

72:                                               ; preds = %72, %.loopexit.i
  %.034.i = phi ptr [ %70, %.loopexit.i ], [ %73, %72 ]
  %73 = getelementptr inbounds i8, ptr %.034.i, i64 %69
  store ptr %73, ptr %.034.i, align 8
  %.not37.i = icmp eq ptr %73, %68
  br i1 %.not37.i, label %74, label %72

74:                                               ; preds = %72
  store ptr null, ptr %68, align 8
  br label %zend_mm_alloc_small_slow.exit

75:                                               ; preds = %2
  %76 = icmp ult i64 %1, 2093057
  br i1 %76, label %77, label %88

77:                                               ; preds = %75
  %78 = add nuw nsw i64 %1, 4095
  %79 = lshr i64 %78, 12
  %80 = trunc i64 %79 to i32
  %81 = tail call fastcc ptr @zend_mm_alloc_pages(ptr noundef %0, i32 noundef %80)
  %82 = getelementptr inbounds i8, ptr %0, i64 16
  %83 = load i64, ptr %82, align 8
  %84 = and i64 %78, 4190208
  %85 = add i64 %83, %84
  %86 = getelementptr inbounds i8, ptr %0, i64 24
  %87 = load i64, ptr %86, align 8
  %..i = tail call i64 @llvm.umax.i64(i64 %87, i64 %85)
  store i64 %85, ptr %82, align 8
  store i64 %..i, ptr %86, align 8
  br label %zend_mm_alloc_small_slow.exit

88:                                               ; preds = %75
  %89 = tail call fastcc ptr @zend_mm_alloc_huge(ptr noundef %0, i64 noundef %1)
  br label %zend_mm_alloc_small_slow.exit

zend_mm_alloc_small_slow.exit:                    ; preds = %74, %34, %32, %88, %77
  %.047 = phi ptr [ %81, %77 ], [ %89, %88 ], [ %31, %32 ], [ null, %34 ], [ %38, %74 ]
  ret ptr %.047
}